; Function Attrs: nounwind uwtable
define internal fastcc range(i32 -2, 2) i32 @ecxkem_init(ptr noundef captures(address_is_null) %0, i32 noundef range(i32 4096, 8193) %1, ptr noundef %2, ptr noundef %3, ptr noundef %4) unnamed_addr #0 {
  %6 = tail call i32 @ossl_prov_is_running() #5
  %.not = icmp eq i32 %6, 0
  br i1 %.not, label %recipient_key_set.exit.thread, label %7

7:                                                ; preds = %5
  %8 = icmp eq i32 %1, 8192
  %9 = getelementptr i8, ptr %2, i64 80
  %.val = load ptr, ptr %9, align 8, !tbaa !36
  %10 = icmp eq ptr %.val, null
  %narrow.not = and i1 %8, %10
  br i1 %narrow.not, label %recipient_key_set.exit.thread, label %11

11:                                               ; preds = %7
  %12 = load ptr, ptr %0, align 8, !tbaa !25
  tail call void @ossl_ecx_key_free(ptr noundef %12) #5
  store ptr null, ptr %0, align 8, !tbaa !25
  %13 = getelementptr i8, ptr %2, i64 96
  %.val.i = load i32, ptr %13, align 8, !tbaa !3
  %14 = icmp eq i32 %.val.i, 0
  %.str.5..str.6.i.i = select i1 %14, ptr @.str.5, ptr @.str.6
  %15 = tail call ptr @ossl_HPKE_KEM_INFO_find_curve(ptr noundef nonnull %.str.5..str.6.i.i) #5
  %16 = getelementptr inbounds nuw i8, ptr %0, i64 64
  store ptr %15, ptr %16, align 8, !tbaa !26
  %17 = icmp eq ptr %15, null
  br i1 %17, label %recipient_key_set.exit.thread, label %18

18:                                               ; preds = %11
  %19 = getelementptr inbounds nuw i8, ptr %0, i64 56
  store ptr @.str.2, ptr %19, align 8, !tbaa !27
  %20 = tail call i32 @ossl_ecx_key_up_ref(ptr noundef nonnull %2) #5
  %.not11.i = icmp eq i32 %20, 0
  br i1 %.not11.i, label %recipient_key_set.exit.thread, label %21

21:                                               ; preds = %18
  store ptr %2, ptr %0, align 8, !tbaa !25
  %.not23 = icmp eq ptr %3, null
  br i1 %.not23, label %39, label %22

22:                                               ; preds = %21
  %23 = getelementptr inbounds nuw i8, ptr %3, i64 96
  %24 = load i32, ptr %23, align 8, !tbaa !3
  %25 = load i32, ptr %13, align 8, !tbaa !3
  %26 = icmp eq i32 %24, %25
  br i1 %26, label %ecx_match_params.exit, label %recipient_key_set.exit.thread

ecx_match_params.exit:                            ; preds = %22
  %27 = getelementptr inbounds nuw i8, ptr %3, i64 88
  %28 = load i64, ptr %27, align 8, !tbaa !46
  %29 = getelementptr inbounds nuw i8, ptr %2, i64 88
  %30 = load i64, ptr %29, align 8, !tbaa !46
  %.not38 = icmp eq i64 %28, %30
  br i1 %.not38, label %31, label %recipient_key_set.exit.thread

31:                                               ; preds = %ecx_match_params.exit
  %32 = icmp eq i32 %1, 4096
  %33 = getelementptr i8, ptr %3, i64 80
  %.val27 = load ptr, ptr %33, align 8, !tbaa !36
  %34 = icmp eq ptr %.val27, null
  %narrow.not41 = and i1 %32, %34
  br i1 %narrow.not41, label %recipient_key_set.exit.thread, label %35

35:                                               ; preds = %31
  %36 = getelementptr inbounds nuw i8, ptr %0, i64 8
  %37 = load ptr, ptr %36, align 8, !tbaa !35
  tail call void @ossl_ecx_key_free(ptr noundef %37) #5
  store ptr null, ptr %36, align 8, !tbaa !35
  %38 = tail call i32 @ossl_ecx_key_up_ref(ptr noundef nonnull %3) #5
  %.not7.i = icmp eq i32 %38, 0
  br i1 %.not7.i, label %recipient_key_set.exit.thread, label %sender_authkey_set.exit

sender_authkey_set.exit:                          ; preds = %35
  store ptr %3, ptr %36, align 8, !tbaa !35
  br label %39

39:                                               ; preds = %sender_authkey_set.exit, %21
  %40 = getelementptr inbounds nuw i8, ptr %0, i64 36
  store i32 %1, ptr %40, align 4, !tbaa !28
  %41 = tail call i32 @ecxkem_set_ctx_params(ptr noundef nonnull %0, ptr noundef %4)
  br label %recipient_key_set.exit.thread

recipient_key_set.exit.thread:                    ; preds = %35, %22, %18, %11, %ecx_match_params.exit, %31, %7, %5, %39
  %.0 = phi i32 [ %41, %39 ], [ 0, %5 ], [ 0, %7 ], [ 0, %31 ], [ 0, %ecx_match_params.exit ], [ 0, %18 ], [ -2, %11 ], [ 0, %22 ], [ 0, %35 ]
  ret i32 %.0
}